; Function Attrs: mustprogress uwtable
define internal void @_ZN32pxrInternal_v0_24__pxrReserved__12_GLOBAL__N_112_FactoryImplINS_7VtArrayIiEEEESt10shared_ptrINS_19HdSampledDataSourceEERKNS_17UsdAttributeQueryERKNS_32UsdImagingDataSourceStageGlobalsERKNS_7SdfPathERKNS_19HdDataSourceLocatorE(ptr dead_on_unwind noalias writable writeonly sret(%"class.std::shared_ptr") align 8 captures(none) initializes((0, 16)) %0, ptr noundef nonnull align 8 dereferenceable(120) %1, ptr noundef nonnull align 8 dereferenceable(8) %2, ptr noundef nonnull align 4 dereferenceable(8) %3, ptr noundef nonnull align 8 dereferenceable(56) %4) #0 personality ptr @__gxx_personality_v0 {
_ZNSt10shared_ptrIN32pxrInternal_v0_24__pxrReserved__29UsdImagingDataSourceAttributeINS0_7VtArrayIiEEEEED2Ev.exit:
  %5 = alloca %"class.std::shared_ptr.212", align 8
  call void @_ZN32pxrInternal_v0_24__pxrReserved__29UsdImagingDataSourceAttributeINS_7VtArrayIiEEE3NewIJRKNS_17UsdAttributeQueryERKNS_32UsdImagingDataSourceStageGlobalsERKNS_7SdfPathERKNS_19HdDataSourceLocatorEEEESt10shared_ptrIS3_EDpOT_(ptr dead_on_unwind nonnull writable sret(%"class.std::shared_ptr.212") align 8 %5, ptr noundef nonnull align 8 dereferenceable(120) %1, ptr noundef nonnull align 8 dereferenceable(8) %2, ptr noundef nonnull align 4 dereferenceable(8) %3, ptr noundef nonnull align 8 dereferenceable(56) %4)
  %6 = load ptr, ptr %5, align 8
  store ptr %6, ptr %0, align 8
  %7 = getelementptr inbounds nuw i8, ptr %0, i64 8
  %8 = getelementptr inbounds nuw i8, ptr %5, i64 8
  %9 = load ptr, ptr %8, align 8
  store ptr %9, ptr %7, align 8
  ret void
}